Certificate:
    Data:
        Version: 3 (0x2)
        Serial Number:
            f0:c5:7e:c1:34:ea:d0:d2
        Signature Algorithm: sha1WithRSAEncryption
        Issuer: C=US, CN=bourne.emc.com
        Validity
            Not Before: Aug 16 18:38:09 2012 GMT
            Not After : Aug 17 18:38:09 2022 GMT
        Subject: C=US, CN=bourne.emc.com
        Subject Public Key Info:
            Public Key Algorithm: rsaEncryption
            RSA Public Key: (1024 bit)
                Modulus (1024 bit):
                    00:fb:2a:2c:06:d3:bf:cd:78:3b:37:94:92:a4:f2:
                    80:2e:1d:04:9e:8e:19:5c:74:af:e5:3d:13:79:4b:
                    14:3c:19:e5:8d:be:66:9d:a9:77:91:a4:0d:d9:ea:
                    11:3c:ab:0f:cf:61:79:7f:85:ad:ac:f2:ca:f4:11:
                    e8:da:c2:56:04:61:fb:9f:c7:e2:47:26:59:ec:7b:
                    21:a0:a3:7c:cb:ed:26:f6:84:be:e2:a0:ea:ae:52:
                    1f:bc:da:41:42:ec:10:29:a9:7d:c3:4f:6c:1c:12:
                    22:ab:d4:69:80:93:ad:93:32:95:8d:7f:e6:da:88:
                    ca:4b:17:d9:e1:47:a6:b4:09
                Exponent: 65537 (0x10001)
        X509v3 extensions:
            X509v3 Subject Key Identifier: 
                D5:98:D2:52:8F:27:13:9A:F4:11:33:5B:B4:9A:A1:37:1C:73:45:17
            X509v3 Authority Key Identifier: 
                keyid:D5:98:D2:52:8F:27:13:9A:F4:11:33:5B:B4:9A:A1:37:1C:73:45:17
                DirName:/C=US/CN=bourne.emc.com
                serial:F0:C5:7E:C1:34:EA:D0:D2

            X509v3 Basic Constraints: 
                CA:TRUE
    Signature Algorithm: sha1WithRSAEncryption
        2a:ea:9c:89:84:3b:f6:e0:a2:b7:d0:f5:2a:c8:4a:c4:b3:e0:
        63:0f:36:33:f4:e0:d7:fd:7e:97:33:de:31:96:a5:91:0c:f8:
        78:70:69:11:a7:64:9e:34:da:c0:c3:61:45:dd:bd:e0:57:7b:
        dd:87:19:26:4c:90:bc:2f:c4:4c:bd:8b:3c:b3:09:82:fb:aa:
        96:af:1f:bf:56:9d:9d:43:20:12:72:6f:44:f4:df:ae:bb:6f:
        c9:a2:93:c7:af:f9:db:0b:c0:a5:ad:e3:a0:bf:ac:53:fa:68:
        d5:b5:ca:fb:1f:c7:fd:d8:e9:66:71:e0:7c:15:5e:48:e4:53:
        c1:4c
-----BEGIN CERTIFICATE-----
MIICUzCCAbygAwIBAgIJAPDFfsE06tDSMA0GCSqGSIb3DQEBBQUAMCYxCzAJBgNV
BAYTAlVTMRcwFQYDVQQDEw5ib3VybmUuZW1jLmNvbTAeFw0xMjA4MTYxODM4MDla
Fw0yMjA4MTcxODM4MDlaMCYxCzAJBgNVBAYTAlVTMRcwFQYDVQQDEw5ib3VybmUu
ZW1jLmNvbTCBnzANBgkqhkiG9w0BAQEFAAOBjQAwgYkCgYEA+yosBtO/zXg7N5SS
pPKALh0Eno4ZXHSv5T0TeUsUPBnljb5mnal3kaQN2eoRPKsPz2F5f4WtrPLK9BHo
2sJWBGH7n8fiRyZZ7HshoKN8y+0m9oS+4qDqrlIfvNpBQuwQKal9w09sHBIiq9Rp
gJOtkzKVjX/m2ojKSxfZ4UemtAkCAwEAAaOBiDCBhTAdBgNVHQ4EFgQU1ZjSUo8n
E5r0ETNbtJqhNxxzRRcwVgYDVR0jBE8wTYAU1ZjSUo8nE5r0ETNbtJqhNxxzRReh
KqQoMCYxCzAJBgNVBAYTAlVTMRcwFQYDVQQDEw5ib3VybmUuZW1jLmNvbYIJAPDF
fsE06tDSMAwGA1UdEwQFMAMBAf8wDQYJKoZIhvcNAQEFBQADgYEAKuqciYQ79uCi
t9D1KshKxLPgYw82M/Tg1/1+lzPeMZalkQz4eHBpEadknjTawMNhRd294Fd73YcZ
JkyQvC/ETL2LPLMJgvuqlq8fv1adnUMgEnJvRPTfrrtvyaKTx6/52wvApa3joL+s
U/po1bXK+x/H/djpZnHgfBVeSORTwUw=
-----END CERTIFICATE-----
